; Function Attrs: mustprogress nofree norecurse nosync nounwind willreturn memory(argmem: read) uwtable
define noundef double @_ZNK8QuantLib13DigitalCoupon9putStrikeEv(ptr nocapture noundef nonnull readonly align 8 dereferenceable(289) %this) local_unnamed_addr #14 align 2 {
entry:
  %hasPutStrike_.i = getelementptr inbounds nuw i8, ptr %this, i64 280
  %0 = load i8, ptr %hasPutStrike_.i, align 8, !tbaa !70, !range !26, !noundef !27
  %loadedv.i = trunc nuw i8 %0 to i1
  %putStrike_ = getelementptr inbounds nuw i8, ptr %this, i64 200
  %1 = load double, ptr %putStrike_, align 8
  %retval.0 = select i1 %loadedv.i, double %1, double 0x47EFFFFFE0000000
  ret double %retval.0
}